; ModuleID = 'source-C-CXX/53/1671.cpp'
source_filename = "source-C-CXX/53/1671.cpp"
target datalayout = "e-m:e-p270:32:32-p271:32:32-p272:64:64-i64:64-f80:128-n8:16:32:64-S128"
target triple = "x86_64-pc-linux-gnu"

%"class.std::ios_base::Init" = type { i8 }
%"class.std::basic_istream" = type { i32 (...)**, i64, %"class.std::basic_ios" }
%"class.std::basic_ios" = type { %"class.std::ios_base", %"class.std::basic_ostream"*, i8, i8, %"class.std::basic_streambuf"*, %"class.std::ctype"*, %"class.std::num_put"*, %"class.std::num_get"* }
%"class.std::ios_base" = type { i32 (...)**, i64, i64, i32, i32, i32, %"struct.std::ios_base::_Callback_list"*, %"struct.std::ios_base::_Words", [8 x %"struct.std::ios_base::_Words"], i32, %"struct.std::ios_base::_Words"*, %"class.std::locale" }
%"struct.std::ios_base::_Callback_list" = type { %"struct.std::ios_base::_Callback_list"*, void (i32, %"class.std::ios_base"*, i32)*, i32, i32 }
%"struct.std::ios_base::_Words" = type { i8*, i64 }
%"class.std::locale" = type { %"class.std::locale::_Impl"* }
%"class.std::locale::_Impl" = type { i32, %"class.std::locale::facet"**, i64, %"class.std::locale::facet"**, i8** }
%"class.std::locale::facet" = type <{ i32 (...)**, i32, [4 x i8] }>
%"class.std::basic_ostream" = type { i32 (...)**, %"class.std::basic_ios" }
%"class.std::basic_streambuf" = type { i32 (...)**, i8*, i8*, i8*, i8*, i8*, i8*, %"class.std::locale" }
%"class.std::ctype" = type <{ %"class.std::locale::facet.base", [4 x i8], %struct.__locale_struct*, i8, [7 x i8], i32*, i32*, i16*, i8, [256 x i8], [256 x i8], i8, [6 x i8] }>
%"class.std::locale::facet.base" = type <{ i32 (...)**, i32 }>
%struct.__locale_struct = type { [13 x %struct.__locale_data*], i16*, i32*, i32*, [13 x i8*] }
%struct.__locale_data = type opaque
%"class.std::num_put" = type { %"class.std::locale::facet.base", [4 x i8] }
%"class.std::num_get" = type { %"class.std::locale::facet.base", [4 x i8] }

@_ZStL8__ioinit = internal global %"class.std::ios_base::Init" zeroinitializer, align 1
@__dso_handle = external hidden global i8
@c = dso_local local_unnamed_addr global i32 0, align 4
@s = dso_local local_unnamed_addr global i32 0, align 4
@m = dso_local local_unnamed_addr global i32 0, align 4
@n = dso_local global i32 0, align 4
@k = dso_local global i32 0, align 4
@_ZSt3cin = external global %"class.std::basic_istream", align 8
@_ZSt4cout = external global %"class.std::basic_ostream", align 8
@llvm.global_ctors = appending global [1 x { i32, void ()*, i8* }] [{ i32, void ()*, i8* } { i32 65535, void ()* @_GLOBAL__sub_I_1671.cpp, i8* null }]

declare void @_ZNSt8ios_base4InitC1Ev(%"class.std::ios_base::Init"* nonnull align 1 dereferenceable(1)) unnamed_addr #0

; Function Attrs: nounwind
declare void @_ZNSt8ios_base4InitD1Ev(%"class.std::ios_base::Init"* nonnull align 1 dereferenceable(1)) unnamed_addr #1

; Function Attrs: nofree nounwind
declare i32 @__cxa_atexit(void (i8*)*, i8*, i8*) local_unnamed_addr #2

; Function Attrs: mustprogress nofree nosync nounwind readonly sspstrong uwtable willreturn
define dso_local i32 @_Z1fii(i32 %0, i32 %1) local_unnamed_addr #3 {
  %3 = load i32, i32* @c, align 4
  %4 = load i32, i32* @k, align 4
  %5 = add nsw i32 %3, -1
  %6 = icmp eq i32 %0, 0
  br i1 %6, label %20, label %7

7:                                                ; preds = %2, %14
  %8 = phi i32 [ %18, %14 ], [ %1, %2 ]
  %9 = phi i32 [ %15, %14 ], [ %0, %2 ]
  %10 = icmp sgt i32 %8, %9
  br i1 %10, label %11, label %20

11:                                               ; preds = %7
  %12 = srem i32 %8, %3
  %13 = icmp eq i32 %12, %4
  br i1 %13, label %14, label %20

14:                                               ; preds = %11
  %15 = add nsw i32 %9, -1
  %16 = sub nsw i32 %8, %4
  %17 = mul nsw i32 %16, %5
  %18 = sdiv i32 %17, %3
  %19 = icmp eq i32 %15, 0
  br i1 %19, label %20, label %7

20:                                               ; preds = %14, %11, %7, %2
  %21 = phi i32 [ 1, %2 ], [ 0, %7 ], [ 0, %11 ], [ 1, %14 ]
  ret i32 %21
}

; Function Attrs: mustprogress norecurse sspstrong uwtable
define dso_local i32 @main() local_unnamed_addr #4 {
  %1 = tail call nonnull align 8 dereferenceable(16) %"class.std::basic_istream"* @_ZNSirsERi(%"class.std::basic_istream"* nonnull align 8 dereferenceable(16) @_ZSt3cin, i32* nonnull align 4 dereferenceable(4) @n)
  %2 = tail call nonnull align 8 dereferenceable(16) %"class.std::basic_istream"* @_ZNSirsERi(%"class.std::basic_istream"* nonnull align 8 dereferenceable(16) %1, i32* nonnull align 4 dereferenceable(4) @k)
  %3 = load i32, i32* @n, align 4, !tbaa !5
  store i32 %3, i32* @c, align 4, !tbaa !5
  %4 = load i32, i32* @k, align 4, !tbaa !5
  %5 = add nsw i32 %3, -1
  %6 = icmp eq i32 %3, 0
  %7 = add nsw i32 %4, %3
  br i1 %6, label %25, label %8

8:                                                ; preds = %0, %23
  %9 = phi i32 [ %24, %23 ], [ %7, %0 ]
  br label %10

10:                                               ; preds = %8, %17
  %11 = phi i32 [ %21, %17 ], [ %9, %8 ]
  %12 = phi i32 [ %18, %17 ], [ %3, %8 ]
  %13 = icmp sgt i32 %11, %12
  br i1 %13, label %14, label %23

14:                                               ; preds = %10
  %15 = srem i32 %11, %3
  %16 = icmp eq i32 %15, %4
  br i1 %16, label %17, label %23

17:                                               ; preds = %14
  %18 = add nsw i32 %12, -1
  %19 = sub nsw i32 %11, %4
  %20 = mul nsw i32 %19, %5
  %21 = sdiv i32 %20, %3
  %22 = icmp eq i32 %18, 0
  br i1 %22, label %25, label %10

23:                                               ; preds = %14, %10
  %24 = add nsw i32 %9, %3
  br label %8

25:                                               ; preds = %17, %0
  %26 = phi i32 [ %7, %0 ], [ %9, %17 ]
  store i32 %26, i32* @m, align 4, !tbaa !5
  %27 = tail call nonnull align 8 dereferenceable(8) %"class.std::basic_ostream"* @_ZNSolsEi(%"class.std::basic_ostream"* nonnull align 8 dereferenceable(8) @_ZSt4cout, i32 %26)
  %28 = bitcast %"class.std::basic_ostream"* %27 to i8**
  %29 = load i8*, i8** %28, align 8, !tbaa !9
  %30 = getelementptr i8, i8* %29, i64 -24
  %31 = bitcast i8* %30 to i64*
  %32 = load i64, i64* %31, align 8
  %33 = bitcast %"class.std::basic_ostream"* %27 to i8*
  %34 = add nsw i64 %32, 240
  %35 = getelementptr inbounds i8, i8* %33, i64 %34
  %36 = bitcast i8* %35 to %"class.std::ctype"**
  %37 = load %"class.std::ctype"*, %"class.std::ctype"** %36, align 8, !tbaa !11
  %38 = icmp eq %"class.std::ctype"* %37, null
  br i1 %38, label %39, label %40

39:                                               ; preds = %25
  tail call void @_ZSt16__throw_bad_castv() #7
  unreachable

40:                                               ; preds = %25
  %41 = getelementptr inbounds %"class.std::ctype", %"class.std::ctype"* %37, i64 0, i32 8
  %42 = load i8, i8* %41, align 8, !tbaa !15
  %43 = icmp eq i8 %42, 0
  br i1 %43, label %47, label %44

44:                                               ; preds = %40
  %45 = getelementptr inbounds %"class.std::ctype", %"class.std::ctype"* %37, i64 0, i32 9, i64 10
  %46 = load i8, i8* %45, align 1, !tbaa !17
  br label %53

47:                                               ; preds = %40
  tail call void @_ZNKSt5ctypeIcE13_M_widen_initEv(%"class.std::ctype"* nonnull align 8 dereferenceable(570) %37)
  %48 = bitcast %"class.std::ctype"* %37 to i8 (%"class.std::ctype"*, i8)***
  %49 = load i8 (%"class.std::ctype"*, i8)**, i8 (%"class.std::ctype"*, i8)*** %48, align 8, !tbaa !9
  %50 = getelementptr inbounds i8 (%"class.std::ctype"*, i8)*, i8 (%"class.std::ctype"*, i8)** %49, i64 6
  %51 = load i8 (%"class.std::ctype"*, i8)*, i8 (%"class.std::ctype"*, i8)** %50, align 8
  %52 = tail call signext i8 %51(%"class.std::ctype"* nonnull align 8 dereferenceable(570) %37, i8 signext 10)
  br label %53

53:                                               ; preds = %44, %47
  %54 = phi i8 [ %46, %44 ], [ %52, %47 ]
  %55 = tail call nonnull align 8 dereferenceable(8) %"class.std::basic_ostream"* @_ZNSo3putEc(%"class.std::basic_ostream"* nonnull align 8 dereferenceable(8) %27, i8 signext %54)
  %56 = tail call nonnull align 8 dereferenceable(8) %"class.std::basic_ostream"* @_ZNSo5flushEv(%"class.std::basic_ostream"* nonnull align 8 dereferenceable(8) %55)
  ret i32 0
}

declare nonnull align 8 dereferenceable(16) %"class.std::basic_istream"* @_ZNSirsERi(%"class.std::basic_istream"* nonnull align 8 dereferenceable(16), i32* nonnull align 4 dereferenceable(4)) local_unnamed_addr #0

declare nonnull align 8 dereferenceable(8) %"class.std::basic_ostream"* @_ZNSolsEi(%"class.std::basic_ostream"* nonnull align 8 dereferenceable(8), i32) local_unnamed_addr #0

declare nonnull align 8 dereferenceable(8) %"class.std::basic_ostream"* @_ZNSo3putEc(%"class.std::basic_ostream"* nonnull align 8 dereferenceable(8), i8 signext) local_unnamed_addr #0

declare nonnull align 8 dereferenceable(8) %"class.std::basic_ostream"* @_ZNSo5flushEv(%"class.std::basic_ostream"* nonnull align 8 dereferenceable(8)) local_unnamed_addr #0

; Function Attrs: noreturn
declare void @_ZSt16__throw_bad_castv() local_unnamed_addr #5

declare void @_ZNKSt5ctypeIcE13_M_widen_initEv(%"class.std::ctype"* nonnull align 8 dereferenceable(570)) local_unnamed_addr #0

; Function Attrs: sspstrong uwtable
define internal void @_GLOBAL__sub_I_1671.cpp() #6 section ".text.startup" {
  tail call void @_ZNSt8ios_base4InitC1Ev(%"class.std::ios_base::Init"* nonnull align 1 dereferenceable(1) @_ZStL8__ioinit)
  %1 = tail call i32 @__cxa_atexit(void (i8*)* bitcast (void (%"class.std::ios_base::Init"*)* @_ZNSt8ios_base4InitD1Ev to void (i8*)*), i8* getelementptr inbounds (%"class.std::ios_base::Init", %"class.std::ios_base::Init"* @_ZStL8__ioinit, i64 0, i32 0), i8* nonnull @__dso_handle) #8
  ret void
}


!llvm.module.flags = !{!0, !1, !2, !3}
!llvm.ident = !{!4}

!0 = !{i32 1, !"wchar_size", i32 4}
!1 = !{i32 7, !"PIC Level", i32 2}
!2 = !{i32 7, !"PIE Level", i32 2}
!3 = !{i32 7, !"uwtable", i32 1}
!4 = !{!"clang version 13.0.0"}
!5 = !{!6, !6, i64 0}
!6 = !{!"int", !7, i64 0}
!7 = !{!"omnipotent char", !8, i64 0}
!8 = !{!"Simple C++ TBAA"}
!9 = !{!10, !10, i64 0}
!10 = !{!"vtable pointer", !8, i64 0}
!11 = !{!12, !13, i64 240}
!12 = !{!"_ZTSSt9basic_iosIcSt11char_traitsIcEE", !13, i64 216, !7, i64 224, !14, i64 225, !13, i64 232, !13, i64 240, !13, i64 248, !13, i64 256}
!13 = !{!"any pointer", !7, i64 0}
!14 = !{!"bool", !7, i64 0}
!15 = !{!16, !7, i64 56}
!16 = !{!"_ZTSSt5ctypeIcE", !13, i64 16, !14, i64 24, !13, i64 32, !13, i64 40, !13, i64 48, !7, i64 56, !7, i64 57, !7, i64 313, !7, i64 569}
!17 = !{!7, !7, i64 0}
